(dp1
S'type'
p2
(dp3
g2
S'string'
p4
sS'sortable'
p5
I3
sS'sql'
p6
S'CHAR(32)'
p7
ssS'id'
p8
(dp9
g2
g8
sg5
I1
sg6
S'INTEGER PRIMARY KEY AUTOINCREMENT'
p10
ssS'name'
p11
(dp12
g2
g4
sg5
I2
sg6
S'CHAR(64)'
p13
ss.