(dp1
S'userid'
p2
(dp3
S'type'
p4
S'reference auth_user'
p5
sS'sortable'
p6
I2
sS'sql'
p7
S'INTEGER REFERENCES auth_user (id) ON DELETE CASCADE'
p8
ssS'email'
p9
(dp10
g4
S'string'
p11
sg6
I6
sg7
S'CHAR(64)'
p12
ssS'lname'
p13
(dp14
g4
g11
sg6
I5
sg7
S'CHAR(32)'
p15
ssS'fname'
p16
(dp17
g4
g11
sg6
I4
sg7
S'CHAR(32)'
p18
ssS'posting_date'
p19
(dp20
g4
S'datetime'
p21
sg6
I3
sg7
S'TIMESTAMP'
p22
ssS'id'
p23
(dp24
g4
g23
sg6
I1
sg7
S'INTEGER PRIMARY KEY AUTOINCREMENT'
p25
ss.